target datalayout = "e-m:e-p270:32:32-p271:32:32-p272:64:64-i64:64-i128:128-f80:128-n8:16:32:64-S128"
target triple = "x86_64-pc-linux-gnu"

%"struct.pybind11::detail::overload_cast_impl" = type { i8 }
%"class.pybind11::object" = type { %"class.pybind11::handle" }
%"class.pybind11::handle" = type { ptr }
%"class.pybind11::class_" = type { %"class.pybind11::detail::generic_type" }
%"class.pybind11::detail::generic_type" = type { %"class.pybind11::object" }
%"class.pybind11::detail::accessor" = type { [8 x i8], %"class.pybind11::handle", ptr, %"class.pybind11::object" }
%"class.pybind11::cpp_function" = type { %"class.pybind11::function" }
%"class.pybind11::function" = type { %"class.pybind11::object" }
%"struct.pybind11::is_setter" = type { i8 }

@.str = private unnamed_addr constant [17 x i8] c"DrawableGeometry\00", align 1
@.str.4 = private unnamed_addr constant [19 x i8] c"has_valid_material\00", align 1
@.str.5 = private unnamed_addr constant [50 x i8] c"Returns true if the geometry's material is valid.\00", align 1
@.str.6 = private unnamed_addr constant [9 x i8] c"material\00", align 1
@_ZN8pybind11L13overload_castIJEEE = internal constant %"struct.pybind11::detail::overload_cast_impl" undef, align 1

; Function Attrs: mustprogress nounwind ssp uwtable
define linkonce_odr hidden void @_ZN8pybind116handleC2Ev(ptr noundef nonnull align 8 dereferenceable(8) %0) unnamed_addr #1 comdat align 2 {
  %2 = alloca ptr, align 8
  store ptr %0, ptr %2, align 8, !tbaa !214
  %3 = load ptr, ptr %2, align 8
  %4 = getelementptr inbounds nuw %"class.pybind11::handle", ptr %3, i32 0, i32 0
  store ptr null, ptr %4, align 8, !tbaa !212
  ret void
}

; Function Attrs: mustprogress nounwind ssp uwtable
define linkonce_odr hidden void @_ZN8pybind116objectC2Ev(ptr noundef nonnull align 8 dereferenceable(8) %0) unnamed_addr #1 comdat align 2 {
  %2 = alloca ptr, align 8
  store ptr %0, ptr %2, align 8, !tbaa !210
  %3 = load ptr, ptr %2, align 8
  call void @_ZN8pybind116handleC2Ev(ptr noundef nonnull align 8 dereferenceable(8) %3) #25
  ret void
}

; Function Attrs: mustprogress nounwind ssp uwtable
define linkonce_odr hidden { i64, i64 } @_ZN8pybind1114method_adaptorIN6open3d1t8geometry16DrawableGeometryEvS4_JRKNS1_13visualization9rendering8MaterialEEEEMT_FT0_DpT2_EMT1_FSB_SD_E(i64 %0, i64 %1) #1 comdat {
  %3 = alloca { i64, i64 }, align 8
  %4 = alloca { i64, i64 }, align 8
  %5 = getelementptr inbounds nuw { i64, i64 }, ptr %3, i32 0, i32 0
  store i64 %0, ptr %5, align 8
  %6 = getelementptr inbounds nuw { i64, i64 }, ptr %3, i32 0, i32 1
  store i64 %1, ptr %6, align 8
  %7 = load { i64, i64 }, ptr %3, align 8, !tbaa !167
  store { i64, i64 } %7, ptr %4, align 8, !tbaa !167
  %8 = load { i64, i64 }, ptr %4, align 8, !tbaa !167
  ret { i64, i64 } %8
}

; Function Attrs: mustprogress nounwind ssp uwtable
define linkonce_odr hidden void @_ZN8pybind116detail8accessorINS0_17accessor_policies8str_attrEEC2ENS_6handleEPKc(ptr noundef nonnull align 8 dereferenceable(32) %0, ptr %1, ptr noundef %2) unnamed_addr #1 comdat align 2 {
  %4 = alloca %"class.pybind11::handle", align 8
  %5 = alloca ptr, align 8
  %6 = alloca ptr, align 8
  %7 = getelementptr inbounds nuw %"class.pybind11::handle", ptr %4, i32 0, i32 0
  store ptr %1, ptr %7, align 8
  store ptr %0, ptr %5, align 8, !tbaa !171
  store ptr %2, ptr %6, align 8, !tbaa !154
  %8 = load ptr, ptr %5, align 8
  %9 = getelementptr inbounds nuw %"class.pybind11::detail::accessor", ptr %8, i32 0, i32 1
  call void @llvm.memcpy.p0.p0.i64(ptr align 8 %9, ptr align 8 %4, i64 8, i1 false)
  %10 = getelementptr inbounds nuw %"class.pybind11::detail::accessor", ptr %8, i32 0, i32 2
  %11 = load ptr, ptr %6, align 8, !tbaa !154
  store ptr %11, ptr %10, align 8, !tbaa !1675
  %12 = getelementptr inbounds nuw %"class.pybind11::detail::accessor", ptr %8, i32 0, i32 3
  call void @_ZN8pybind116objectC2Ev(ptr noundef nonnull align 8 dereferenceable(8) %12) #25
  ret void
}

; Function Attrs: mustprogress nounwind ssp uwtable
define linkonce_odr hidden noundef nonnull align 8 dereferenceable(8) ptr @_ZNK8pybind116detail10object_apiINS_6handleEE7derivedEv(ptr noundef nonnull align 1 dereferenceable(1) %0) #1 comdat align 2 !type !960 {
  %2 = alloca ptr, align 8
  store ptr %0, ptr %2, align 8, !tbaa !169
  %3 = load ptr, ptr %2, align 8
  ret ptr %3
}

; Function Attrs: mustprogress ssp uwtable
define linkonce_odr hidden noundef nonnull align 8 dereferenceable(8) ptr @_ZN8pybind116class_IN6open3d1t8geometry16DrawableGeometryEJSt10shared_ptrIS4_EEE12def_propertyIMS4_FRNS1_13visualization9rendering8MaterialEvEMS4_FvRKSB_EJEEERS7_PKcRKT_RKT0_DpRKT1_(ptr noundef nonnull align 8 dereferenceable(8) %0, ptr noundef %1, ptr noundef nonnull align 8 dereferenceable(16) %2, ptr noundef nonnull align 8 dereferenceable(16) %3) #3 comdat align 2 personality ptr @__gxx_personality_v0 !type !178 {
  %5 = alloca ptr, align 8
  %6 = alloca ptr, align 8
  %7 = alloca ptr, align 8
  %8 = alloca ptr, align 8
  %9 = alloca %"class.pybind11::cpp_function", align 8
  %10 = alloca { i64, i64 }, align 8
  %11 = alloca %"struct.pybind11::is_setter", align 1
  %12 = alloca { i64, i64 }, align 8
  %13 = alloca ptr, align 8
  %14 = alloca i32, align 4
  store ptr %0, ptr %5, align 8, !tbaa !152
  store ptr %1, ptr %6, align 8, !tbaa !154
  store ptr %2, ptr %7, align 8, !tbaa !174
  store ptr %3, ptr %8, align 8, !tbaa !174
  %15 = load ptr, ptr %5, align 8
  %16 = load ptr, ptr %6, align 8, !tbaa !154
  %17 = load ptr, ptr %7, align 8, !tbaa !174
  call void @llvm.lifetime.start.p0(i64 8, ptr %9) #25
  %18 = load ptr, ptr %8, align 8, !tbaa !174
  %19 = load { i64, i64 }, ptr %18, align 8, !tbaa !167
  store { i64, i64 } %19, ptr %10, align 8, !tbaa !167
  %20 = getelementptr inbounds nuw { i64, i64 }, ptr %10, i32 0, i32 0
  %21 = load i64, ptr %20, align 8
  %22 = getelementptr inbounds nuw { i64, i64 }, ptr %10, i32 0, i32 1
  %23 = load i64, ptr %22, align 8
  %24 = call { i64, i64 } @_ZN8pybind1114method_adaptorIN6open3d1t8geometry16DrawableGeometryEvS4_JRKNS1_13visualization9rendering8MaterialEEEEMT_FT0_DpT2_EMT1_FSB_SD_E(i64 %21, i64 %23)
  call void @llvm.lifetime.start.p0(i64 1, ptr %11) #25
  store { i64, i64 } %24, ptr %12, align 8, !tbaa !167
  %25 = getelementptr inbounds nuw { i64, i64 }, ptr %12, i32 0, i32 0
  %26 = load i64, ptr %25, align 8
  %27 = getelementptr inbounds nuw { i64, i64 }, ptr %12, i32 0, i32 1
  %28 = load i64, ptr %27, align 8
  call void @_ZN8pybind1112cpp_functionC2IvN6open3d1t8geometry16DrawableGeometryEJRKNS2_13visualization9rendering8MaterialEEJNS_9is_setterEEEEMT0_FT_DpT1_EDpRKT2_(ptr noundef nonnull align 8 dereferenceable(8) %9, i64 %26, i64 %28, ptr noundef nonnull align 1 dereferenceable(1) %11)
  %29 = invoke noundef nonnull align 8 dereferenceable(8) ptr @_ZN8pybind116class_IN6open3d1t8geometry16DrawableGeometryEJSt10shared_ptrIS4_EEE12def_propertyIMS4_FRNS1_13visualization9rendering8MaterialEvEJEEERS7_PKcRKT_RKNS_12cpp_functionEDpRKT0_(ptr noundef nonnull align 8 dereferenceable(8) %15, ptr noundef %16, ptr noundef nonnull align 8 dereferenceable(16) %17, ptr noundef nonnull align 8 dereferenceable(8) %9)
          to label %30 unwind label %31

30:                                               ; preds = %4
  call void @_ZN8pybind116objectD2Ev(ptr noundef nonnull align 8 dereferenceable(8) %9) #25
  call void @llvm.lifetime.end.p0(i64 1, ptr %11) #25
  call void @llvm.lifetime.end.p0(i64 8, ptr %9) #25
  ret ptr %29

31:                                               ; preds = %4
  %32 = landingpad { ptr, i32 }
          cleanup
  %33 = extractvalue { ptr, i32 } %32, 0
  store ptr %33, ptr %13, align 8
  %34 = extractvalue { ptr, i32 } %32, 1
  store i32 %34, ptr %14, align 4
  call void @_ZN8pybind116objectD2Ev(ptr noundef nonnull align 8 dereferenceable(8) %9) #25
  call void @llvm.lifetime.end.p0(i64 1, ptr %11) #25
  call void @llvm.lifetime.end.p0(i64 8, ptr %9) #25
  br label %35

35:                                               ; preds = %31
  %36 = load ptr, ptr %13, align 8
  %37 = load i32, ptr %14, align 4
  %38 = insertvalue { ptr, i32 } poison, ptr %36, 0
  %39 = insertvalue { ptr, i32 } %38, i32 %37, 1
  resume { ptr, i32 } %39
}

; Function Attrs: mustprogress nounwind ssp uwtable
define linkonce_odr hidden { i64, i64 } @_ZNK8pybind116detail18overload_cast_implIJEEclIRN6open3d13visualization9rendering8MaterialENS4_1t8geometry16DrawableGeometryEEEDtfp_EMT0_FT_vESt17integral_constantIbLb0EE(ptr noundef nonnull align 1 dereferenceable(1) %0, i64 %1, i64 %2) #1 comdat align 2 !type !179 {
  %4 = alloca { i64, i64 }, align 8
  %5 = alloca ptr, align 8
  %6 = alloca { i64, i64 }, align 8
  %7 = getelementptr inbounds nuw { i64, i64 }, ptr %4, i32 0, i32 0
  store i64 %1, ptr %7, align 8
  %8 = getelementptr inbounds nuw { i64, i64 }, ptr %4, i32 0, i32 1
  store i64 %2, ptr %8, align 8
  %9 = load { i64, i64 }, ptr %4, align 8, !tbaa !167
  store ptr %0, ptr %5, align 8, !tbaa !180
  store { i64, i64 } %9, ptr %6, align 8, !tbaa !167
  %10 = load { i64, i64 }, ptr %6, align 8, !tbaa !167
  ret { i64, i64 } %10
}

; Function Attrs: mustprogress ssp uwtable
define linkonce_odr hidden void @_ZNK8pybind116detail10object_apiINS_6handleEE4attrEPKc(ptr dead_on_unwind noalias writable sret(%"class.pybind11::detail::accessor") align 8 %0, ptr noundef nonnull align 1 dereferenceable(1) %1, ptr noundef %2) #3 comdat align 2 !type !168 {
  %4 = alloca ptr, align 8
  %5 = alloca ptr, align 8
  %6 = alloca ptr, align 8
  %7 = alloca %"class.pybind11::handle", align 8
  store ptr %0, ptr %4, align 8
  store ptr %1, ptr %5, align 8, !tbaa !169
  store ptr %2, ptr %6, align 8, !tbaa !154
  %8 = load ptr, ptr %5, align 8
  %9 = call noundef nonnull align 8 dereferenceable(8) ptr @_ZNK8pybind116detail10object_apiINS_6handleEE7derivedEv(ptr noundef nonnull align 1 dereferenceable(1) %8)
  call void @llvm.memcpy.p0.p0.i64(ptr align 8 %7, ptr align 8 %9, i64 8, i1 false)
  %10 = load ptr, ptr %6, align 8, !tbaa !154
  %11 = getelementptr inbounds nuw %"class.pybind11::handle", ptr %7, i32 0, i32 0
  %12 = load ptr, ptr %11, align 8
  call void @_ZN8pybind116detail8accessorINS0_17accessor_policies8str_attrEEC2ENS_6handleEPKc(ptr noundef nonnull align 8 dereferenceable(32) %0, ptr %12, ptr noundef %10)
  ret void
}

; Function Attrs: mustprogress ssp uwtable
define hidden void @_ZN6open3d1t8geometry42pybind_drawable_geometry_class_definitionsERN8pybind117module_E(ptr noundef nonnull align 8 dereferenceable(8) %0) #3 personality ptr @__gxx_personality_v0 {
  %2 = alloca ptr, align 8
  %3 = alloca %"class.pybind11::class_", align 8
  %4 = alloca %"class.pybind11::detail::accessor", align 8
  %5 = alloca ptr, align 8
  %6 = alloca i32, align 4
  %7 = alloca { i64, i64 }, align 8
  %8 = alloca { i64, i64 }, align 8
  %9 = alloca { i64, i64 }, align 8
  %10 = alloca { i64, i64 }, align 8
  store ptr %0, ptr %2, align 8, !tbaa !150
  call void @llvm.lifetime.start.p0(i64 8, ptr %3) #25
  call void @llvm.lifetime.start.p0(i64 32, ptr %4) #25
  %11 = load ptr, ptr %2, align 8, !tbaa !150
  call void @_ZNK8pybind116detail10object_apiINS_6handleEE4attrEPKc(ptr dead_on_unwind writable sret(%"class.pybind11::detail::accessor") align 8 %4, ptr noundef nonnull align 1 dereferenceable(1) %11, ptr noundef @.str)
  invoke void @_ZN8pybind116class_IN6open3d1t8geometry16DrawableGeometryEJSt10shared_ptrIS4_EEEC2INS_6detail17accessor_policies8str_attrEEERKNS9_8accessorIT_EE(ptr noundef nonnull align 8 dereferenceable(8) %3, ptr noundef nonnull align 8 dereferenceable(32) %4)
          to label %12 unwind label %22

12:                                               ; preds = %1
  call void @_ZN8pybind116detail8accessorINS0_17accessor_policies8str_attrEED2Ev(ptr noundef nonnull align 8 dereferenceable(32) %4) #25
  call void @llvm.lifetime.end.p0(i64 32, ptr %4) #25
  call void @llvm.lifetime.start.p0(i64 16, ptr %7) #25
  store { i64, i64 } { i64 ptrtoint (ptr @_ZNK6open3d1t8geometry16DrawableGeometry11HasMaterialEv to i64), i64 0 }, ptr %7, align 8, !tbaa !167
  %13 = invoke noundef nonnull align 8 dereferenceable(8) ptr @_ZN8pybind116class_IN6open3d1t8geometry16DrawableGeometryEJSt10shared_ptrIS4_EEE3defIMS4_KFbvEJA50_cEEERS7_PKcOT_DpRKT0_(ptr noundef nonnull align 8 dereferenceable(8) %3, ptr noundef @.str.4, ptr noundef nonnull align 8 dereferenceable(16) %7, ptr noundef nonnull align 1 dereferenceable(50) @.str.5)
          to label %14 unwind label %26

14:                                               ; preds = %12
  call void @llvm.lifetime.end.p0(i64 16, ptr %7) #25
  call void @llvm.lifetime.start.p0(i64 16, ptr %8) #25
  store { i64, i64 } { i64 ptrtoint (ptr @_ZN6open3d1t8geometry16DrawableGeometry11GetMaterialEv to i64), i64 0 }, ptr %9, align 8, !tbaa !167
  %15 = getelementptr inbounds nuw { i64, i64 }, ptr %9, i32 0, i32 0
  %16 = load i64, ptr %15, align 8
  %17 = getelementptr inbounds nuw { i64, i64 }, ptr %9, i32 0, i32 1
  %18 = load i64, ptr %17, align 8
  %19 = call { i64, i64 } @_ZNK8pybind116detail18overload_cast_implIJEEclIRN6open3d13visualization9rendering8MaterialENS4_1t8geometry16DrawableGeometryEEEDtfp_EMT0_FT_vESt17integral_constantIbLb0EE(ptr noundef nonnull align 1 dereferenceable(1) @_ZN8pybind11L13overload_castIJEEE, i64 %16, i64 %18) #25
  store { i64, i64 } %19, ptr %8, align 8, !tbaa !167
  call void @llvm.lifetime.start.p0(i64 16, ptr %10) #25
  store { i64, i64 } { i64 ptrtoint (ptr @_ZN6open3d1t8geometry16DrawableGeometry11SetMaterialERKNS_13visualization9rendering8MaterialE to i64), i64 0 }, ptr %10, align 8, !tbaa !167
  %20 = invoke noundef nonnull align 8 dereferenceable(8) ptr @_ZN8pybind116class_IN6open3d1t8geometry16DrawableGeometryEJSt10shared_ptrIS4_EEE12def_propertyIMS4_FRNS1_13visualization9rendering8MaterialEvEMS4_FvRKSB_EJEEERS7_PKcRKT_RKT0_DpRKT1_(ptr noundef nonnull align 8 dereferenceable(8) %3, ptr noundef @.str.6, ptr noundef nonnull align 8 dereferenceable(16) %8, ptr noundef nonnull align 8 dereferenceable(16) %10)
          to label %21 unwind label %30

21:                                               ; preds = %14
  call void @llvm.lifetime.end.p0(i64 16, ptr %10) #25
  call void @llvm.lifetime.end.p0(i64 16, ptr %8) #25
  call void @_ZN8pybind116objectD2Ev(ptr noundef nonnull align 8 dereferenceable(8) %3) #25
  call void @llvm.lifetime.end.p0(i64 8, ptr %3) #25
  ret void

22:                                               ; preds = %1
  %23 = landingpad { ptr, i32 }
          cleanup
  %24 = extractvalue { ptr, i32 } %23, 0
  store ptr %24, ptr %5, align 8
  %25 = extractvalue { ptr, i32 } %23, 1
  store i32 %25, ptr %6, align 4
  call void @_ZN8pybind116detail8accessorINS0_17accessor_policies8str_attrEED2Ev(ptr noundef nonnull align 8 dereferenceable(32) %4) #25
  call void @llvm.lifetime.end.p0(i64 32, ptr %4) #25
  br label %35

26:                                               ; preds = %12
  %27 = landingpad { ptr, i32 }
          cleanup
  %28 = extractvalue { ptr, i32 } %27, 0
  store ptr %28, ptr %5, align 8
  %29 = extractvalue { ptr, i32 } %27, 1
  store i32 %29, ptr %6, align 4
  call void @llvm.lifetime.end.p0(i64 16, ptr %7) #25
  br label %34

30:                                               ; preds = %14
  %31 = landingpad { ptr, i32 }
          cleanup
  %32 = extractvalue { ptr, i32 } %31, 0
  store ptr %32, ptr %5, align 8
  %33 = extractvalue { ptr, i32 } %31, 1
  store i32 %33, ptr %6, align 4
  call void @llvm.lifetime.end.p0(i64 16, ptr %10) #25
  call void @llvm.lifetime.end.p0(i64 16, ptr %8) #25
  br label %34

34:                                               ; preds = %30, %26
  call void @_ZN8pybind116objectD2Ev(ptr noundef nonnull align 8 dereferenceable(8) %3) #25
  br label %35

35:                                               ; preds = %34, %22
  call void @llvm.lifetime.end.p0(i64 8, ptr %3) #25
  br label %36

36:                                               ; preds = %35
  %37 = load ptr, ptr %5, align 8
  %38 = load i32, ptr %6, align 4
  %39 = insertvalue { ptr, i32 } poison, ptr %37, 0
  %40 = insertvalue { ptr, i32 } %39, i32 %38, 1
  resume { ptr, i32 } %40
}