; Function Attrs: mustprogress ssp uwtable
define hidden void @_ZN6open3d1t8geometry42pybind_drawable_geometry_class_definitionsERN8pybind117module_E(ptr noundef nonnull readonly align 8 captures(none) dereferenceable(8) %0) local_unnamed_addr #5 personality ptr @__gxx_personality_v0 {
  %2 = alloca %"class.pybind11::cpp_function", align 8
  %3 = alloca %"struct.pybind11::is_setter", align 1
  %4 = alloca %"class.pybind11::class_", align 8
  %5 = alloca %"class.pybind11::detail::accessor", align 8
  %6 = alloca { i64, i64 }, align 8
  %7 = alloca { i64, i64 }, align 8
  call void @llvm.lifetime.start.p0(i64 8, ptr nonnull %4) #30
  call void @llvm.lifetime.start.p0(i64 32, ptr nonnull %5) #30
  tail call void @llvm.experimental.noalias.scope.decl(metadata !152)
  %.sroa.0.0.copyload.i = load ptr, ptr %0, align 8, !noalias !152
  %8 = getelementptr inbounds nuw i8, ptr %5, i64 8
  store ptr %.sroa.0.0.copyload.i, ptr %8, align 8, !alias.scope !152
  %9 = getelementptr inbounds nuw i8, ptr %5, i64 16
  store ptr @.str, ptr %9, align 8, !tbaa !155, !alias.scope !152
  %10 = getelementptr inbounds nuw i8, ptr %5, i64 24
  store ptr null, ptr %10, align 8, !tbaa !137, !alias.scope !152
  invoke void @_ZN8pybind116class_IN6open3d1t8geometry16DrawableGeometryEJSt10shared_ptrIS4_EEEC2INS_6detail17accessor_policies8str_attrEEERKNS9_8accessorIT_EE(ptr noundef nonnull align 8 dereferenceable(8) %4, ptr noundef nonnull align 8 dereferenceable(32) %5)
          to label %11 unwind label %52

11:                                               ; preds = %1
  %12 = load ptr, ptr %10, align 8, !tbaa !137
  %.not.i.i.i.i = icmp eq ptr %12, null
  br i1 %.not.i.i.i.i, label %_ZN8pybind116detail8accessorINS0_17accessor_policies8str_attrEED2Ev.exit, label %13

13:                                               ; preds = %11
  %14 = load i64, ptr %12, align 8, !tbaa !136
  %15 = and i64 %14, 2147483648
  %.not2.i.i.i.i = icmp eq i64 %15, 0
  br i1 %.not2.i.i.i.i, label %16, label %_ZN8pybind116detail8accessorINS0_17accessor_policies8str_attrEED2Ev.exit

16:                                               ; preds = %13
  %17 = add nsw i64 %14, -1
  store i64 %17, ptr %12, align 8, !tbaa !136
  %18 = icmp eq i64 %17, 0
  br i1 %18, label %19, label %_ZN8pybind116detail8accessorINS0_17accessor_policies8str_attrEED2Ev.exit

19:                                               ; preds = %16
  invoke void @_Py_Dealloc(ptr noundef nonnull %12)
          to label %_ZN8pybind116detail8accessorINS0_17accessor_policies8str_attrEED2Ev.exit unwind label %20

20:                                               ; preds = %19
  %21 = landingpad { ptr, i32 }
          catch ptr null
  %22 = extractvalue { ptr, i32 } %21, 0
  call void @__clang_call_terminate(ptr %22) #31
  unreachable

_ZN8pybind116detail8accessorINS0_17accessor_policies8str_attrEED2Ev.exit: ; preds = %11, %13, %16, %19
  call void @llvm.lifetime.end.p0(i64 32, ptr nonnull %5) #30
  call void @llvm.lifetime.start.p0(i64 16, ptr nonnull %6) #30
  store i64 ptrtoint (ptr @_ZNK6open3d1t8geometry16DrawableGeometry11HasMaterialEv to i64), ptr %6, align 8, !tbaa !136
  %.fca.1.gep6 = getelementptr inbounds nuw i8, ptr %6, i64 8
  store i64 0, ptr %.fca.1.gep6, align 8, !tbaa !136
  %23 = invoke noundef nonnull align 8 dereferenceable(8) ptr @_ZN8pybind116class_IN6open3d1t8geometry16DrawableGeometryEJSt10shared_ptrIS4_EEE3defIMS4_KFbvEJA50_cEEERS7_PKcOT_DpRKT0_(ptr noundef nonnull align 8 dereferenceable(8) %4, ptr noundef nonnull @.str.4, ptr noundef nonnull align 8 dereferenceable(16) %6, ptr noundef nonnull align 1 dereferenceable(50) @.str.5)
          to label %24 unwind label %54

24:                                               ; preds = %_ZN8pybind116detail8accessorINS0_17accessor_policies8str_attrEED2Ev.exit
  call void @llvm.lifetime.end.p0(i64 16, ptr nonnull %6) #30
  call void @llvm.lifetime.start.p0(i64 16, ptr nonnull %7) #30
  store i64 ptrtoint (ptr @_ZN6open3d1t8geometry16DrawableGeometry11GetMaterialEv to i64), ptr %7, align 8, !tbaa !136
  %.fca.1.gep4 = getelementptr inbounds nuw i8, ptr %7, i64 8
  store i64 0, ptr %.fca.1.gep4, align 8, !tbaa !136
  call void @llvm.lifetime.start.p0(i64 8, ptr nonnull %2) #30
  call void @llvm.lifetime.start.p0(i64 1, ptr nonnull %3) #30
  invoke void @_ZN8pybind1112cpp_functionC2IvN6open3d1t8geometry16DrawableGeometryEJRKNS2_13visualization9rendering8MaterialEEJNS_9is_setterEEEEMT0_FT_DpT1_EDpRKT2_(ptr noundef nonnull align 8 dereferenceable(8) %2, i64 ptrtoint (ptr @_ZN6open3d1t8geometry16DrawableGeometry11SetMaterialERKNS_13visualization9rendering8MaterialE to i64), i64 0, ptr noundef nonnull align 1 dereferenceable(1) %3)
          to label %.noexc unwind label %56

.noexc:                                           ; preds = %24
  %25 = invoke noundef nonnull align 8 dereferenceable(8) ptr @_ZN8pybind116class_IN6open3d1t8geometry16DrawableGeometryEJSt10shared_ptrIS4_EEE12def_propertyIMS4_FRNS1_13visualization9rendering8MaterialEvEJEEERS7_PKcRKT_RKNS_12cpp_functionEDpRKT0_(ptr noundef nonnull align 8 dereferenceable(8) %4, ptr noundef nonnull @.str.6, ptr noundef nonnull align 8 dereferenceable(16) %7, ptr noundef nonnull align 8 dereferenceable(8) %2)
          to label %26 unwind label %38

26:                                               ; preds = %.noexc
  %27 = load ptr, ptr %2, align 8, !tbaa !137
  %.not.i.i.i.i12 = icmp eq ptr %27, null
  br i1 %.not.i.i.i.i12, label %40, label %28

28:                                               ; preds = %26
  %29 = load i64, ptr %27, align 8, !tbaa !136
  %30 = and i64 %29, 2147483648
  %.not2.i.i.i.i13 = icmp eq i64 %30, 0
  br i1 %.not2.i.i.i.i13, label %31, label %40

31:                                               ; preds = %28
  %32 = add nsw i64 %29, -1
  store i64 %32, ptr %27, align 8, !tbaa !136
  %33 = icmp eq i64 %32, 0
  br i1 %33, label %34, label %40

34:                                               ; preds = %31
  invoke void @_Py_Dealloc(ptr noundef nonnull %27)
          to label %40 unwind label %35

35:                                               ; preds = %34
  %36 = landingpad { ptr, i32 }
          catch ptr null
  %37 = extractvalue { ptr, i32 } %36, 0
  call void @__clang_call_terminate(ptr %37) #31
  unreachable

38:                                               ; preds = %.noexc
  %39 = landingpad { ptr, i32 }
          cleanup
  call void @_ZN8pybind116objectD2Ev(ptr noundef nonnull align 8 dereferenceable(8) %2) #30
  call void @llvm.lifetime.end.p0(i64 1, ptr nonnull %3) #30
  call void @llvm.lifetime.end.p0(i64 8, ptr nonnull %2) #30
  br label %.body

40:                                               ; preds = %34, %31, %28, %26
  call void @llvm.lifetime.end.p0(i64 1, ptr nonnull %3) #30
  call void @llvm.lifetime.end.p0(i64 8, ptr nonnull %2) #30
  call void @llvm.lifetime.end.p0(i64 16, ptr nonnull %7) #30
  %41 = load ptr, ptr %4, align 8, !tbaa !137
  %.not.i.i.i = icmp eq ptr %41, null
  br i1 %.not.i.i.i, label %_ZN8pybind116objectD2Ev.exit, label %42

42:                                               ; preds = %40
  %43 = load i64, ptr %41, align 8, !tbaa !136
  %44 = and i64 %43, 2147483648
  %.not2.i.i.i = icmp eq i64 %44, 0
  br i1 %.not2.i.i.i, label %45, label %_ZN8pybind116objectD2Ev.exit

45:                                               ; preds = %42
  %46 = add nsw i64 %43, -1
  store i64 %46, ptr %41, align 8, !tbaa !136
  %47 = icmp eq i64 %46, 0
  br i1 %47, label %48, label %_ZN8pybind116objectD2Ev.exit

48:                                               ; preds = %45
  invoke void @_Py_Dealloc(ptr noundef nonnull %41)
          to label %_ZN8pybind116objectD2Ev.exit unwind label %49

49:                                               ; preds = %48
  %50 = landingpad { ptr, i32 }
          catch ptr null
  %51 = extractvalue { ptr, i32 } %50, 0
  call void @__clang_call_terminate(ptr %51) #31
  unreachable

_ZN8pybind116objectD2Ev.exit:                     ; preds = %40, %42, %45, %48
  call void @llvm.lifetime.end.p0(i64 8, ptr nonnull %4) #30
  ret void

52:                                               ; preds = %1
  %53 = landingpad { ptr, i32 }
          cleanup
  call void @_ZN8pybind116detail8accessorINS0_17accessor_policies8str_attrEED2Ev(ptr noundef nonnull align 8 dereferenceable(32) %5) #30
  call void @llvm.lifetime.end.p0(i64 32, ptr nonnull %5) #30
  br label %59

54:                                               ; preds = %_ZN8pybind116detail8accessorINS0_17accessor_policies8str_attrEED2Ev.exit
  %55 = landingpad { ptr, i32 }
          cleanup
  call void @llvm.lifetime.end.p0(i64 16, ptr nonnull %6) #30
  br label %58

56:                                               ; preds = %24
  %57 = landingpad { ptr, i32 }
          cleanup
  br label %.body

.body:                                            ; preds = %38, %56
  %eh.lpad-body = phi { ptr, i32 } [ %57, %56 ], [ %39, %38 ]
  call void @llvm.lifetime.end.p0(i64 16, ptr nonnull %7) #30
  br label %58

58:                                               ; preds = %.body, %54
  %.pn = phi { ptr, i32 } [ %eh.lpad-body, %.body ], [ %55, %54 ]
  call void @_ZN8pybind116objectD2Ev(ptr noundef nonnull align 8 dereferenceable(8) %4) #30
  br label %59

59:                                               ; preds = %58, %52
  %.pn.pn = phi { ptr, i32 } [ %.pn, %58 ], [ %53, %52 ]
  call void @llvm.lifetime.end.p0(i64 8, ptr nonnull %4) #30
  resume { ptr, i32 } %.pn.pn
}